target datalayout = "e-m:e-p270:32:32-p271:32:32-p272:64:64-i64:64-i128:128-f80:128-n8:16:32:64-S128"
target triple = "x86_64-pc-linux-gnu"

%struct._lv_dropdown_t = type { %struct._lv_obj_t, ptr, ptr, ptr, ptr, i32, i32, i32, i32, i8 }
%struct._lv_obj_t = type { ptr, ptr, ptr, ptr, ptr, %struct.lv_area_t, i32, i16, i16 }
%struct.lv_area_t = type { i32, i32, i32, i32 }

; Function Attrs: nounwind uwtable
define void @lv_dropdown_close(ptr noundef %0) #0 {
  %2 = alloca ptr, align 8
  %3 = alloca ptr, align 8
  store ptr %0, ptr %2, align 8, !tbaa !3
  br label %4

4:                                                ; preds = %1
  br label %5

5:                                                ; preds = %4
  %6 = load ptr, ptr %2, align 8, !tbaa !3
  call void @lv_obj_remove_state(ptr noundef %6, i16 noundef zeroext 1)
  call void @llvm.lifetime.start.p0(i64 8, ptr %3) #5
  %7 = load ptr, ptr %2, align 8, !tbaa !3
  store ptr %7, ptr %3, align 8, !tbaa !3
  %8 = load ptr, ptr %3, align 8, !tbaa !3
  %9 = getelementptr inbounds nuw %struct._lv_dropdown_t, ptr %8, i32 0, i32 8
  store i32 65535, ptr %9, align 4, !tbaa !18
  %10 = load ptr, ptr %3, align 8, !tbaa !3
  %11 = getelementptr inbounds nuw %struct._lv_dropdown_t, ptr %10, i32 0, i32 1
  %12 = load ptr, ptr %11, align 8, !tbaa !7
  call void @lv_obj_add_flag(ptr noundef %12, i32 noundef 1)
  %13 = load ptr, ptr %2, align 8, !tbaa !3
  %14 = call i32 @lv_obj_send_event(ptr noundef %13, i32 noundef 39, ptr noundef null)
  call void @llvm.lifetime.end.p0(i64 8, ptr %3) #5
  ret void
}

; Function Attrs: nounwind uwtable
define zeroext i1 @lv_dropdown_is_open(ptr noundef %0) #0 {
  %2 = alloca ptr, align 8
  %3 = alloca ptr, align 8
  store ptr %0, ptr %2, align 8, !tbaa !3
  br label %4

4:                                                ; preds = %1
  br label %5

5:                                                ; preds = %4
  call void @llvm.lifetime.start.p0(i64 8, ptr %3) #5
  %6 = load ptr, ptr %2, align 8, !tbaa !3
  store ptr %6, ptr %3, align 8, !tbaa !3
  %7 = load ptr, ptr %3, align 8, !tbaa !3
  %8 = getelementptr inbounds nuw %struct._lv_dropdown_t, ptr %7, i32 0, i32 1
  %9 = load ptr, ptr %8, align 8, !tbaa !7
  %10 = call zeroext i1 @lv_obj_has_flag(ptr noundef %9, i32 noundef 1)
  %11 = select i1 %10, i32 0, i32 1
  %12 = icmp ne i32 %11, 0
  call void @llvm.lifetime.end.p0(i64 8, ptr %3) #5
  ret i1 %12
}

; Function Attrs: nounwind uwtable
define internal i32 @btn_release_handler(ptr noundef %0) #0 {
  %2 = alloca i32, align 4
  %3 = alloca ptr, align 8
  %4 = alloca ptr, align 8
  %5 = alloca ptr, align 8
  %6 = alloca i32, align 4
  %7 = alloca i32, align 4
  %8 = alloca i32, align 4
  %9 = alloca i32, align 4
  store ptr %0, ptr %3, align 8, !tbaa !3
  call void @llvm.lifetime.start.p0(i64 8, ptr %4) #5
  %10 = load ptr, ptr %3, align 8, !tbaa !3
  store ptr %10, ptr %4, align 8, !tbaa !3
  call void @llvm.lifetime.start.p0(i64 8, ptr %5) #5
  %11 = call ptr @lv_indev_active()
  store ptr %11, ptr %5, align 8, !tbaa !3
  %12 = load ptr, ptr %5, align 8, !tbaa !3
  %13 = call ptr @lv_indev_get_scroll_obj(ptr noundef %12)
  %14 = icmp eq ptr %13, null
  br i1 %14, label %15, label %59

15:                                               ; preds = %1
  %16 = load ptr, ptr %3, align 8, !tbaa !3
  %17 = call zeroext i1 @lv_dropdown_is_open(ptr noundef %16)
  br i1 %17, label %18, label %56

18:                                               ; preds = %15
  %19 = load ptr, ptr %3, align 8, !tbaa !3
  call void @lv_dropdown_close(ptr noundef %19)
  %20 = load ptr, ptr %4, align 8, !tbaa !3
  %21 = getelementptr inbounds nuw %struct._lv_dropdown_t, ptr %20, i32 0, i32 7
  %22 = load i32, ptr %21, align 8, !tbaa !17
  %23 = load ptr, ptr %4, align 8, !tbaa !3
  %24 = getelementptr inbounds nuw %struct._lv_dropdown_t, ptr %23, i32 0, i32 6
  %25 = load i32, ptr %24, align 4, !tbaa !16
  %26 = icmp ne i32 %22, %25
  br i1 %26, label %27, label %47

27:                                               ; preds = %18
  %28 = load ptr, ptr %4, align 8, !tbaa !3
  %29 = getelementptr inbounds nuw %struct._lv_dropdown_t, ptr %28, i32 0, i32 6
  %30 = load i32, ptr %29, align 4, !tbaa !16
  %31 = load ptr, ptr %4, align 8, !tbaa !3
  %32 = getelementptr inbounds nuw %struct._lv_dropdown_t, ptr %31, i32 0, i32 7
  store i32 %30, ptr %32, align 8, !tbaa !17
  call void @llvm.lifetime.start.p0(i64 4, ptr %6) #5
  call void @llvm.lifetime.start.p0(i64 4, ptr %7) #5
  %33 = load ptr, ptr %4, align 8, !tbaa !3
  %34 = getelementptr inbounds nuw %struct._lv_dropdown_t, ptr %33, i32 0, i32 6
  %35 = load i32, ptr %34, align 4, !tbaa !16
  store i32 %35, ptr %7, align 4, !tbaa !22
  %36 = load ptr, ptr %3, align 8, !tbaa !3
  %37 = call i32 @lv_obj_send_event(ptr noundef %36, i32 noundef 35, ptr noundef %7)
  store i32 %37, ptr %6, align 4, !tbaa !22
  %38 = load i32, ptr %6, align 4, !tbaa !22
  %39 = icmp ne i32 %38, 1
  br i1 %39, label %40, label %42

40:                                               ; preds = %27
  %41 = load i32, ptr %6, align 4, !tbaa !22
  store i32 %41, ptr %2, align 4
  store i32 1, ptr %8, align 4
  br label %44

42:                                               ; preds = %27
  %43 = load ptr, ptr %3, align 8, !tbaa !3
  call void @lv_obj_invalidate(ptr noundef %43)
  store i32 0, ptr %8, align 4
  br label %44

44:                                               ; preds = %42, %40
  call void @llvm.lifetime.end.p0(i64 4, ptr %7) #5
  call void @llvm.lifetime.end.p0(i64 4, ptr %6) #5
  %45 = load i32, ptr %8, align 4
  switch i32 %45, label %67 [
    i32 0, label %46
  ]

46:                                               ; preds = %44
  br label %47

47:                                               ; preds = %46, %18
  call void @llvm.lifetime.start.p0(i64 4, ptr %9) #5
  %48 = load ptr, ptr %5, align 8, !tbaa !3
  %49 = call i32 @lv_indev_get_type(ptr noundef %48)
  store i32 %49, ptr %9, align 4, !tbaa !22
  %50 = load i32, ptr %9, align 4, !tbaa !22
  %51 = icmp eq i32 %50, 4
  br i1 %51, label %52, label %55

52:                                               ; preds = %47
  %53 = load ptr, ptr %3, align 8, !tbaa !3
  %54 = call ptr @lv_obj_get_group(ptr noundef %53)
  call void @lv_group_set_editing(ptr noundef %54, i1 noundef zeroext false)
  br label %55

55:                                               ; preds = %52, %47
  call void @llvm.lifetime.end.p0(i64 4, ptr %9) #5
  br label %58

56:                                               ; preds = %15
  %57 = load ptr, ptr %3, align 8, !tbaa !3
  call void @lv_dropdown_open(ptr noundef %57)
  br label %58

58:                                               ; preds = %56, %55
  br label %66

59:                                               ; preds = %1
  %60 = load ptr, ptr %4, align 8, !tbaa !3
  %61 = getelementptr inbounds nuw %struct._lv_dropdown_t, ptr %60, i32 0, i32 7
  %62 = load i32, ptr %61, align 8, !tbaa !17
  %63 = load ptr, ptr %4, align 8, !tbaa !3
  %64 = getelementptr inbounds nuw %struct._lv_dropdown_t, ptr %63, i32 0, i32 6
  store i32 %62, ptr %64, align 4, !tbaa !16
  %65 = load ptr, ptr %3, align 8, !tbaa !3
  call void @lv_obj_invalidate(ptr noundef %65)
  br label %66

66:                                               ; preds = %59, %58
  store i32 1, ptr %2, align 4
  store i32 1, ptr %8, align 4
  br label %67

67:                                               ; preds = %66, %44
  call void @llvm.lifetime.end.p0(i64 8, ptr %5) #5
  call void @llvm.lifetime.end.p0(i64 8, ptr %4) #5
  %68 = load i32, ptr %2, align 4
  ret i32 %68
}