; Function Attrs: nounwind uwtable
define internal fastcc void @btn_release_handler(ptr noundef %0) unnamed_addr #0 {
  %2 = alloca i32, align 4
  %3 = tail call ptr @lv_indev_active() #7
  %4 = tail call ptr @lv_indev_get_scroll_obj(ptr noundef %3) #7
  %5 = icmp eq ptr %4, null
  br i1 %5, label %6, label %27

6:                                                ; preds = %1
  %7 = getelementptr inbounds nuw i8, ptr %0, i64 64
  %8 = load ptr, ptr %7, align 8, !tbaa !3
  %9 = tail call zeroext i1 @lv_obj_has_flag(ptr noundef %8, i32 noundef 1) #7
  br i1 %9, label %26, label %10

10:                                               ; preds = %6
  tail call void @lv_obj_remove_state(ptr noundef nonnull %0, i16 noundef zeroext 1) #7
  %11 = getelementptr inbounds nuw i8, ptr %0, i64 108
  store i32 65535, ptr %11, align 4, !tbaa !17
  %12 = load ptr, ptr %7, align 8, !tbaa !3
  tail call void @lv_obj_add_flag(ptr noundef %12, i32 noundef 1) #7
  %13 = tail call i32 @lv_obj_send_event(ptr noundef nonnull %0, i32 noundef 39, ptr noundef null) #7
  %14 = getelementptr inbounds nuw i8, ptr %0, i64 104
  %15 = load i32, ptr %14, align 8, !tbaa !16
  %16 = getelementptr inbounds nuw i8, ptr %0, i64 100
  %17 = load i32, ptr %16, align 4, !tbaa !15
  %.not = icmp eq i32 %15, %17
  br i1 %.not, label %21, label %18

18:                                               ; preds = %10
  store i32 %17, ptr %14, align 8, !tbaa !16
  call void @llvm.lifetime.start.p0(i64 4, ptr nonnull %2) #7
  store i32 %17, ptr %2, align 4, !tbaa !27
  %19 = call i32 @lv_obj_send_event(ptr noundef nonnull %0, i32 noundef 35, ptr noundef nonnull %2) #7
  %.not22 = icmp eq i32 %19, 1
  br i1 %.not22, label %20, label %.critedge

20:                                               ; preds = %18
  call void @lv_obj_invalidate(ptr noundef nonnull %0) #7
  call void @llvm.lifetime.end.p0(i64 4, ptr nonnull %2) #7
  br label %21

21:                                               ; preds = %20, %10
  %22 = call i32 @lv_indev_get_type(ptr noundef %3) #7
  %23 = icmp eq i32 %22, 4
  br i1 %23, label %24, label %31

24:                                               ; preds = %21
  %25 = call ptr @lv_obj_get_group(ptr noundef nonnull %0) #7
  call void @lv_group_set_editing(ptr noundef %25, i1 noundef zeroext false) #7
  br label %31

26:                                               ; preds = %6
  tail call void @lv_dropdown_open(ptr noundef nonnull %0)
  br label %31

27:                                               ; preds = %1
  %28 = getelementptr inbounds nuw i8, ptr %0, i64 104
  %29 = load i32, ptr %28, align 8, !tbaa !16
  %30 = getelementptr inbounds nuw i8, ptr %0, i64 100
  store i32 %29, ptr %30, align 4, !tbaa !15
  tail call void @lv_obj_invalidate(ptr noundef %0) #7
  br label %31

.critedge:                                        ; preds = %18
  call void @llvm.lifetime.end.p0(i64 4, ptr nonnull %2) #7
  br label %31

31:                                               ; preds = %27, %26, %24, %21, %.critedge
  ret void
}